; Function Attrs: uwtable
define range(i32 -4, 1) i32 @faiss_IndexReplicas_add_replica(ptr noundef %0, ptr noundef %1) local_unnamed_addr #6 personality ptr @__gxx_personality_v0 {
  %3 = alloca %"class.std::__exception_ptr::exception_ptr", align 8
  %4 = alloca %"class.std::__exception_ptr::exception_ptr", align 8
  %5 = alloca %"class.std::__exception_ptr::exception_ptr", align 8
  %6 = alloca %"class.std::__exception_ptr::exception_ptr", align 8
  %7 = alloca %"class.std::runtime_error", align 8
  %8 = alloca %"class.std::__exception_ptr::exception_ptr", align 8
  %9 = alloca %"class.std::exception", align 8
  %10 = alloca %"class.std::__exception_ptr::exception_ptr", align 8
  %11 = alloca %"class.faiss::FaissException", align 8
  %12 = load ptr, ptr %0, align 8, !tbaa !3
  %13 = getelementptr inbounds nuw i8, ptr %12, i64 184
  %14 = load ptr, ptr %13, align 8
  invoke void %14(ptr noundef nonnull align 8 dereferenceable(65) %0, ptr noundef %1)
          to label %_ZN5faiss21IndexReplicasTemplateINS_5IndexEE11add_replicaEPS1_.exit unwind label %15

15:                                               ; preds = %2
  %16 = landingpad { ptr, i32 }
          catch ptr @_ZTIN5faiss14FaissExceptionE
          catch ptr @_ZTISt9exception
          catch ptr null
  %17 = extractvalue { ptr, i32 } %16, 0
  %18 = extractvalue { ptr, i32 } %16, 1
  %19 = tail call i32 @llvm.eh.typeid.for.p0(ptr nonnull @_ZTIN5faiss14FaissExceptionE) #26
  %20 = icmp eq i32 %18, %19
  br i1 %20, label %21, label %29

21:                                               ; preds = %15
  %22 = tail call ptr @__cxa_begin_catch(ptr %17) #26
  call void @llvm.lifetime.start.p0(i64 8, ptr nonnull %10) #26
  invoke void @_ZN5faiss14FaissExceptionC2ERKS0_(ptr noundef nonnull align 8 dereferenceable(40) %11, ptr noundef nonnull align 8 dereferenceable(40) %22)
          to label %23 unwind label %48

23:                                               ; preds = %21
  call void @_ZSt18make_exception_ptrIN5faiss14FaissExceptionEENSt15__exception_ptr13exception_ptrET_(ptr dead_on_unwind nonnull writable sret(%"class.std::__exception_ptr::exception_ptr") align 8 %10, ptr noundef nonnull %11) #26
  %.not.i = icmp eq ptr @_ZTH20faiss_last_exception, null
  br i1 %.not.i, label %_ZTW20faiss_last_exception.exit, label %24

24:                                               ; preds = %23
  call void @_ZTH20faiss_last_exception()
  br label %_ZTW20faiss_last_exception.exit

_ZTW20faiss_last_exception.exit:                  ; preds = %23, %24
  %25 = call noundef align 8 ptr @llvm.threadlocal.address.p0(ptr align 8 @faiss_last_exception)
  call void @llvm.lifetime.start.p0(i64 8, ptr nonnull %5) #26
  %26 = load ptr, ptr %10, align 8, !tbaa !25
  store ptr null, ptr %10, align 8, !tbaa !25
  %27 = load ptr, ptr %25, align 8, !tbaa !25
  store ptr %27, ptr %5, align 8, !tbaa !25
  store ptr %26, ptr %25, align 8, !tbaa !25
  %.not.i.i = icmp eq ptr %27, null
  br i1 %.not.i.i, label %_ZNSt15__exception_ptr13exception_ptraSEOS0_.exit.thread, label %_ZNSt15__exception_ptr13exception_ptraSEOS0_.exit

_ZNSt15__exception_ptr13exception_ptraSEOS0_.exit.thread: ; preds = %_ZTW20faiss_last_exception.exit
  call void @llvm.lifetime.end.p0(i64 8, ptr nonnull %5) #26
  br label %_ZNSt15__exception_ptr13exception_ptrD2Ev.exit

_ZNSt15__exception_ptr13exception_ptraSEOS0_.exit: ; preds = %_ZTW20faiss_last_exception.exit
  call void @_ZNSt15__exception_ptr13exception_ptr10_M_releaseEv(ptr noundef nonnull align 8 dereferenceable(8) %5) #26
  %.pr = load ptr, ptr %10, align 8, !tbaa !25
  call void @llvm.lifetime.end.p0(i64 8, ptr nonnull %5) #26
  %.not.i14 = icmp eq ptr %.pr, null
  br i1 %.not.i14, label %_ZNSt15__exception_ptr13exception_ptrD2Ev.exit, label %28

28:                                               ; preds = %_ZNSt15__exception_ptr13exception_ptraSEOS0_.exit
  call void @_ZNSt15__exception_ptr13exception_ptr10_M_releaseEv(ptr noundef nonnull align 8 dereferenceable(8) %10) #26
  br label %_ZNSt15__exception_ptr13exception_ptrD2Ev.exit

_ZNSt15__exception_ptr13exception_ptrD2Ev.exit:   ; preds = %_ZNSt15__exception_ptr13exception_ptraSEOS0_.exit.thread, %_ZNSt15__exception_ptr13exception_ptraSEOS0_.exit, %28
  call void @_ZN5faiss14FaissExceptionD2Ev(ptr noundef nonnull align 8 dereferenceable(40) %11) #26
  call void @llvm.lifetime.end.p0(i64 8, ptr nonnull %10) #26
  br label %_ZN5faiss21IndexReplicasTemplateINS_5IndexEE11add_replicaEPS1_.exit.sink.split

29:                                               ; preds = %15
  %30 = tail call i32 @llvm.eh.typeid.for.p0(ptr nonnull @_ZTISt9exception) #26
  %31 = icmp eq i32 %18, %30
  %32 = tail call ptr @__cxa_begin_catch(ptr %17) #26
  br i1 %31, label %33, label %39

33:                                               ; preds = %29
  call void @llvm.lifetime.start.p0(i64 8, ptr nonnull %8) #26
  store ptr getelementptr inbounds nuw inrange(-16, 24) (i8, ptr @_ZTVSt9exception, i64 16), ptr %9, align 8, !tbaa !3
  call void @_ZSt18make_exception_ptrISt9exceptionENSt15__exception_ptr13exception_ptrET_(ptr dead_on_unwind nonnull writable sret(%"class.std::__exception_ptr::exception_ptr") align 8 %8, ptr noundef nonnull %9) #26
  %.not.i15 = icmp eq ptr @_ZTH20faiss_last_exception, null
  br i1 %.not.i15, label %_ZTW20faiss_last_exception.exit16, label %34

34:                                               ; preds = %33
  call void @_ZTH20faiss_last_exception()
  br label %_ZTW20faiss_last_exception.exit16

_ZTW20faiss_last_exception.exit16:                ; preds = %33, %34
  %35 = call noundef align 8 ptr @llvm.threadlocal.address.p0(ptr align 8 @faiss_last_exception)
  call void @llvm.lifetime.start.p0(i64 8, ptr nonnull %4) #26
  %36 = load ptr, ptr %8, align 8, !tbaa !25
  store ptr null, ptr %8, align 8, !tbaa !25
  %37 = load ptr, ptr %35, align 8, !tbaa !25
  store ptr %37, ptr %4, align 8, !tbaa !25
  store ptr %36, ptr %35, align 8, !tbaa !25
  %.not.i.i17 = icmp eq ptr %37, null
  br i1 %.not.i.i17, label %_ZNSt15__exception_ptr13exception_ptraSEOS0_.exit18.thread, label %_ZNSt15__exception_ptr13exception_ptraSEOS0_.exit18

_ZNSt15__exception_ptr13exception_ptraSEOS0_.exit18.thread: ; preds = %_ZTW20faiss_last_exception.exit16
  call void @llvm.lifetime.end.p0(i64 8, ptr nonnull %4) #26
  br label %_ZNSt15__exception_ptr13exception_ptrD2Ev.exit20

_ZNSt15__exception_ptr13exception_ptraSEOS0_.exit18: ; preds = %_ZTW20faiss_last_exception.exit16
  call void @_ZNSt15__exception_ptr13exception_ptr10_M_releaseEv(ptr noundef nonnull align 8 dereferenceable(8) %4) #26
  %.pr28 = load ptr, ptr %8, align 8, !tbaa !25
  call void @llvm.lifetime.end.p0(i64 8, ptr nonnull %4) #26
  %.not.i19 = icmp eq ptr %.pr28, null
  br i1 %.not.i19, label %_ZNSt15__exception_ptr13exception_ptrD2Ev.exit20, label %38

38:                                               ; preds = %_ZNSt15__exception_ptr13exception_ptraSEOS0_.exit18
  call void @_ZNSt15__exception_ptr13exception_ptr10_M_releaseEv(ptr noundef nonnull align 8 dereferenceable(8) %8) #26
  br label %_ZNSt15__exception_ptr13exception_ptrD2Ev.exit20

_ZNSt15__exception_ptr13exception_ptrD2Ev.exit20: ; preds = %_ZNSt15__exception_ptr13exception_ptraSEOS0_.exit18.thread, %_ZNSt15__exception_ptr13exception_ptraSEOS0_.exit18, %38
  call void @_ZNSt9exceptionD1Ev(ptr noundef nonnull align 8 dereferenceable(8) %9) #26
  call void @llvm.lifetime.end.p0(i64 8, ptr nonnull %8) #26
  br label %_ZN5faiss21IndexReplicasTemplateINS_5IndexEE11add_replicaEPS1_.exit.sink.split

39:                                               ; preds = %29
  call void @llvm.lifetime.start.p0(i64 8, ptr nonnull %6) #26
  invoke void @_ZNSt13runtime_errorC1EPKc(ptr noundef nonnull align 8 dereferenceable(16) %7, ptr noundef nonnull @.str)
          to label %40 unwind label %46

40:                                               ; preds = %39
  call void @_ZSt18make_exception_ptrISt13runtime_errorENSt15__exception_ptr13exception_ptrET_(ptr dead_on_unwind nonnull writable sret(%"class.std::__exception_ptr::exception_ptr") align 8 %6, ptr noundef nonnull %7) #26
  %.not.i21 = icmp eq ptr @_ZTH20faiss_last_exception, null
  br i1 %.not.i21, label %_ZTW20faiss_last_exception.exit22, label %41

41:                                               ; preds = %40
  call void @_ZTH20faiss_last_exception()
  br label %_ZTW20faiss_last_exception.exit22

_ZTW20faiss_last_exception.exit22:                ; preds = %40, %41
  %42 = call noundef align 8 ptr @llvm.threadlocal.address.p0(ptr align 8 @faiss_last_exception)
  call void @llvm.lifetime.start.p0(i64 8, ptr nonnull %3) #26
  %43 = load ptr, ptr %6, align 8, !tbaa !25
  store ptr null, ptr %6, align 8, !tbaa !25
  %44 = load ptr, ptr %42, align 8, !tbaa !25
  store ptr %44, ptr %3, align 8, !tbaa !25
  store ptr %43, ptr %42, align 8, !tbaa !25
  %.not.i.i23 = icmp eq ptr %44, null
  br i1 %.not.i.i23, label %_ZNSt15__exception_ptr13exception_ptraSEOS0_.exit24.thread, label %_ZNSt15__exception_ptr13exception_ptraSEOS0_.exit24

_ZNSt15__exception_ptr13exception_ptraSEOS0_.exit24.thread: ; preds = %_ZTW20faiss_last_exception.exit22
  call void @llvm.lifetime.end.p0(i64 8, ptr nonnull %3) #26
  br label %_ZNSt15__exception_ptr13exception_ptrD2Ev.exit26

_ZNSt15__exception_ptr13exception_ptraSEOS0_.exit24: ; preds = %_ZTW20faiss_last_exception.exit22
  call void @_ZNSt15__exception_ptr13exception_ptr10_M_releaseEv(ptr noundef nonnull align 8 dereferenceable(8) %3) #26
  %.pr30 = load ptr, ptr %6, align 8, !tbaa !25
  call void @llvm.lifetime.end.p0(i64 8, ptr nonnull %3) #26
  %.not.i25 = icmp eq ptr %.pr30, null
  br i1 %.not.i25, label %_ZNSt15__exception_ptr13exception_ptrD2Ev.exit26, label %45

45:                                               ; preds = %_ZNSt15__exception_ptr13exception_ptraSEOS0_.exit24
  call void @_ZNSt15__exception_ptr13exception_ptr10_M_releaseEv(ptr noundef nonnull align 8 dereferenceable(8) %6) #26
  br label %_ZNSt15__exception_ptr13exception_ptrD2Ev.exit26

_ZNSt15__exception_ptr13exception_ptrD2Ev.exit26: ; preds = %_ZNSt15__exception_ptr13exception_ptraSEOS0_.exit24.thread, %_ZNSt15__exception_ptr13exception_ptraSEOS0_.exit24, %45
  call void @_ZNSt13runtime_errorD1Ev(ptr noundef nonnull align 8 dereferenceable(16) %7) #26
  call void @llvm.lifetime.end.p0(i64 8, ptr nonnull %6) #26
  br label %_ZN5faiss21IndexReplicasTemplateINS_5IndexEE11add_replicaEPS1_.exit.sink.split

46:                                               ; preds = %39
  %47 = landingpad { ptr, i32 }
          cleanup
  call void @llvm.lifetime.end.p0(i64 8, ptr nonnull %6) #26
  invoke void @__cxa_end_catch()
          to label %50 unwind label %51

48:                                               ; preds = %21
  %49 = landingpad { ptr, i32 }
          cleanup
  call void @llvm.lifetime.end.p0(i64 8, ptr nonnull %10) #26
  invoke void @__cxa_end_catch()
          to label %50 unwind label %51

_ZN5faiss21IndexReplicasTemplateINS_5IndexEE11add_replicaEPS1_.exit.sink.split: ; preds = %_ZNSt15__exception_ptr13exception_ptrD2Ev.exit, %_ZNSt15__exception_ptr13exception_ptrD2Ev.exit20, %_ZNSt15__exception_ptr13exception_ptrD2Ev.exit26
  %.0.ph = phi i32 [ -1, %_ZNSt15__exception_ptr13exception_ptrD2Ev.exit26 ], [ -4, %_ZNSt15__exception_ptr13exception_ptrD2Ev.exit20 ], [ -2, %_ZNSt15__exception_ptr13exception_ptrD2Ev.exit ]
  call void @__cxa_end_catch()
  br label %_ZN5faiss21IndexReplicasTemplateINS_5IndexEE11add_replicaEPS1_.exit

_ZN5faiss21IndexReplicasTemplateINS_5IndexEE11add_replicaEPS1_.exit: ; preds = %_ZN5faiss21IndexReplicasTemplateINS_5IndexEE11add_replicaEPS1_.exit.sink.split, %2
  %.0 = phi i32 [ 0, %2 ], [ %.0.ph, %_ZN5faiss21IndexReplicasTemplateINS_5IndexEE11add_replicaEPS1_.exit.sink.split ]
  ret i32 %.0

50:                                               ; preds = %48, %46
  %.pn = phi { ptr, i32 } [ %47, %46 ], [ %49, %48 ]
  resume { ptr, i32 } %.pn

51:                                               ; preds = %48, %46
  %52 = landingpad { ptr, i32 }
          catch ptr null
  %53 = extractvalue { ptr, i32 } %52, 0
  call void @__clang_call_terminate(ptr %53) #29
  unreachable
}